; Function Attrs: nofree nosync nounwind memory(read, inaccessiblemem: none) uwtable
define internal fastcc range(i32 -209, 1) i32 @numbered_ref_check(ptr noundef readonly captures(none) %0) unnamed_addr #17 {
  br label %tailrecurse

tailrecurse:                                      ; preds = %tailrecurse.backedge, %1
  %.tr = phi ptr [ %0, %1 ], [ %.tr.be, %tailrecurse.backedge ]
  %2 = load i32, ptr %.tr, align 8, !tbaa !20
  switch i32 %2, label %.thread [
    i32 7, label %.preheader
    i32 8, label %.preheader
    i32 6, label %11
    i32 4, label %tailrecurse._crit_edge
    i32 5, label %15
    i32 3, label %31
  ]

.preheader:                                       ; preds = %tailrecurse, %tailrecurse
  br label %3

tailrecurse._crit_edge:                           ; preds = %tailrecurse
  %.phi.trans.insert = getelementptr inbounds nuw i8, ptr %.tr, i64 16
  %.pre = load ptr, ptr %.phi.trans.insert, align 8, !tbaa !20
  br label %tailrecurse.backedge

3:                                                ; preds = %.preheader, %8
  %.025 = phi ptr [ %10, %8 ], [ %.tr, %.preheader ]
  %4 = getelementptr inbounds nuw i8, ptr %.025, i64 16
  %5 = load ptr, ptr %4, align 8, !tbaa !20
  %6 = tail call fastcc i32 @numbered_ref_check(ptr noundef %5)
  %7 = icmp eq i32 %6, 0
  br i1 %7, label %8, label %.thread

8:                                                ; preds = %3
  %9 = getelementptr inbounds nuw i8, ptr %.025, i64 24
  %10 = load ptr, ptr %9, align 8, !tbaa !20
  %.not42 = icmp eq ptr %10, null
  br i1 %.not42, label %.thread, label %3, !llvm.loop !203

11:                                               ; preds = %tailrecurse
  %12 = getelementptr inbounds nuw i8, ptr %.tr, i64 16
  %13 = load ptr, ptr %12, align 8, !tbaa !20
  %14 = icmp eq ptr %13, null
  br i1 %14, label %.thread, label %tailrecurse.backedge

tailrecurse.backedge:                             ; preds = %11, %tailrecurse._crit_edge, %28
  %.tr.be = phi ptr [ %30, %28 ], [ %.pre, %tailrecurse._crit_edge ], [ %13, %11 ]
  br label %tailrecurse

15:                                               ; preds = %tailrecurse
  %16 = getelementptr inbounds nuw i8, ptr %.tr, i64 16
  %17 = load ptr, ptr %16, align 8, !tbaa !20
  %18 = tail call fastcc i32 @numbered_ref_check(ptr noundef %17)
  %.not37 = icmp eq i32 %18, 0
  br i1 %.not37, label %19, label %.thread

19:                                               ; preds = %15
  %20 = getelementptr inbounds nuw i8, ptr %.tr, i64 24
  %21 = load i32, ptr %20, align 8, !tbaa !98
  %22 = icmp eq i32 %21, 3
  br i1 %22, label %23, label %.thread

23:                                               ; preds = %19
  %24 = getelementptr inbounds nuw i8, ptr %.tr, i64 32
  %25 = load ptr, ptr %24, align 8, !tbaa !20
  %.not38 = icmp eq ptr %25, null
  br i1 %.not38, label %28, label %26

26:                                               ; preds = %23
  %27 = tail call fastcc i32 @numbered_ref_check(ptr noundef nonnull %25)
  %.not39 = icmp eq i32 %27, 0
  br i1 %.not39, label %28, label %.thread

28:                                               ; preds = %26, %23
  %29 = getelementptr inbounds nuw i8, ptr %.tr, i64 40
  %30 = load ptr, ptr %29, align 8, !tbaa !20
  %.not40 = icmp eq ptr %30, null
  br i1 %.not40, label %.thread, label %tailrecurse.backedge

31:                                               ; preds = %tailrecurse
  %32 = getelementptr inbounds nuw i8, ptr %.tr, i64 4
  %33 = load i32, ptr %32, align 4, !tbaa !20
  %34 = and i32 %33, 32768
  %.not = icmp eq i32 %34, 0
  %spec.select46 = select i1 %.not, i32 -209, i32 0
  br label %.thread

.thread:                                          ; preds = %26, %15, %11, %tailrecurse, %19, %28, %8, %3, %31
  %.1 = phi i32 [ %spec.select46, %31 ], [ %6, %3 ], [ 0, %8 ], [ %18, %15 ], [ %27, %26 ], [ 0, %28 ], [ 0, %19 ], [ 0, %11 ], [ 0, %tailrecurse ]
  ret i32 %.1
}